; Function Attrs: mustprogress uwtable
define internal void @_ZL9f_luaopenP9lua_StatePv(ptr noundef %0, ptr readnone captures(none) %1) #0 {
  %3 = getelementptr inbounds nuw i8, ptr %0, i64 24
  %4 = load ptr, ptr %3, align 8
  %5 = getelementptr inbounds nuw i8, ptr %0, i64 2
  %6 = load i8, ptr %5, align 2
  %7 = tail call noundef ptr @_Z9luaM_new_P9lua_Statemh(ptr noundef %0, i64 noundef 320, i8 noundef zeroext %6)
  %8 = getelementptr inbounds nuw i8, ptr %0, i64 64
  store ptr %7, ptr %8, align 8
  %9 = getelementptr inbounds nuw i8, ptr %0, i64 32
  store ptr %7, ptr %9, align 8
  %10 = getelementptr inbounds nuw i8, ptr %0, i64 76
  store i32 8, ptr %10, align 4
  %11 = getelementptr inbounds nuw i8, ptr %7, i64 280
  %12 = getelementptr inbounds nuw i8, ptr %0, i64 56
  store ptr %11, ptr %12, align 8
  %13 = load i8, ptr %5, align 2
  %14 = tail call noundef ptr @_Z9luaM_new_P9lua_Statemh(ptr noundef %0, i64 noundef 720, i8 noundef zeroext %13)
  %15 = getelementptr inbounds nuw i8, ptr %0, i64 48
  store ptr %14, ptr %15, align 8
  %16 = getelementptr inbounds nuw i8, ptr %0, i64 72
  store i32 45, ptr %16, align 8
  br label %17

17:                                               ; preds = %17, %2
  %indvars.iv.i = phi i64 [ 0, %2 ], [ %indvars.iv.next.i, %17 ]
  %18 = getelementptr inbounds nuw %struct.lua_TValue, ptr %14, i64 %indvars.iv.i, i32 2
  store i32 0, ptr %18, align 4
  %indvars.iv.next.i = add nuw nsw i64 %indvars.iv.i, 1
  %exitcond.not.i = icmp eq i64 %indvars.iv.next.i, 45
  br i1 %exitcond.not.i, label %_ZL10stack_initP9lua_StateS0_.exit, label %17, !llvm.loop !5

_ZL10stack_initP9lua_StateS0_.exit:               ; preds = %17
  %19 = getelementptr inbounds nuw i8, ptr %0, i64 8
  store ptr %14, ptr %19, align 8
  %20 = load i32, ptr %16, align 8
  %21 = sext i32 %20 to i64
  %22 = getelementptr %struct.lua_TValue, ptr %14, i64 %21
  %23 = getelementptr i8, ptr %22, i64 -80
  %24 = getelementptr inbounds nuw i8, ptr %0, i64 40
  store ptr %23, ptr %24, align 8
  %25 = load ptr, ptr %9, align 8
  %26 = getelementptr inbounds nuw i8, ptr %25, i64 8
  store ptr %14, ptr %26, align 8
  %27 = load ptr, ptr %19, align 8
  %28 = getelementptr inbounds nuw i8, ptr %27, i64 16
  store ptr %28, ptr %19, align 8
  %29 = getelementptr inbounds nuw i8, ptr %27, i64 12
  store i32 0, ptr %29, align 4
  %30 = load ptr, ptr %19, align 8
  %31 = load ptr, ptr %9, align 8
  store ptr %30, ptr %31, align 8
  %32 = getelementptr inbounds nuw i8, ptr %0, i64 16
  store ptr %30, ptr %32, align 8
  %33 = getelementptr inbounds nuw i8, ptr %30, i64 320
  %34 = load ptr, ptr %9, align 8
  %35 = getelementptr inbounds nuw i8, ptr %34, i64 16
  store ptr %33, ptr %35, align 8
  %36 = tail call noundef ptr @_Z8luaH_newP9lua_Stateii(ptr noundef %0, i32 noundef 0, i32 noundef 2)
  %37 = getelementptr inbounds nuw i8, ptr %0, i64 88
  store ptr %36, ptr %37, align 8
  %38 = load ptr, ptr %3, align 8
  %39 = getelementptr inbounds nuw i8, ptr %38, i64 3216
  %40 = tail call noundef ptr @_Z8luaH_newP9lua_Stateii(ptr noundef %0, i32 noundef 0, i32 noundef 2)
  store ptr %40, ptr %39, align 8
  %41 = getelementptr inbounds nuw i8, ptr %38, i64 3228
  store i32 6, ptr %41, align 4
  tail call void @_Z11luaS_resizeP9lua_Statei(ptr noundef %0, i32 noundef 32)
  tail call void @_Z9luaT_initP9lua_State(ptr noundef %0)
  %42 = tail call noundef ptr @_Z12luaS_newlstrP9lua_StatePKcm(ptr noundef %0, ptr noundef nonnull @.str, i64 noundef 17)
  %43 = getelementptr inbounds nuw i8, ptr %42, i64 1
  %44 = load i8, ptr %43, align 1
  %45 = or i8 %44, 8
  store i8 %45, ptr %43, align 1
  %46 = tail call noundef ptr @_Z12luaS_newlstrP9lua_StatePKcm(ptr noundef %0, ptr noundef nonnull @.str.1, i64 noundef 23)
  %47 = getelementptr inbounds nuw i8, ptr %46, i64 1
  %48 = load i8, ptr %47, align 1
  %49 = or i8 %48, 8
  store i8 %49, ptr %47, align 1
  %50 = getelementptr inbounds nuw i8, ptr %4, i64 72
  %51 = load i64, ptr %50, align 8
  %52 = shl i64 %51, 2
  %53 = getelementptr inbounds nuw i8, ptr %4, i64 64
  store i64 %52, ptr %53, align 8
  ret void
}